target datalayout = "e-m:e-p270:32:32-p271:32:32-p272:64:64-i64:64-i128:128-f80:128-n8:16:32:64-S128"
target triple = "x86_64-pc-linux-gnu"

%struct.fd_set = type { [16 x i64] }
%struct.timeval = type { i64, i64 }

@bgpipe = internal global [2 x i32] [i32 -1, i32 -1], align 4
@.str.235 = private unnamed_addr constant [6 x i8] c"%X/%X\00", align 1
@.str.236 = private unnamed_addr constant [46 x i8] c"could not parse write-ahead log location \22%s\22\00", align 1
@has_xlogendptr = internal global i32 0, align 4
@.str.245 = private unnamed_addr constant [35 x i8] c"could not read from ready pipe: %m\00", align 1
@xlogendptr = internal global i64 0, align 8

; Function Attrs: nounwind uwtable
define internal zeroext i1 @reached_end_position(i64 noundef %0, i32 noundef %1, i1 noundef zeroext %2) #0 {
  %4 = alloca i1, align 1
  %5 = alloca i64, align 8
  %6 = alloca i32, align 4
  %7 = alloca i8, align 1
  %8 = alloca %struct.fd_set, align 8
  %9 = alloca %struct.timeval, align 8
  %10 = alloca i32, align 4
  %11 = alloca i32, align 4
  %12 = alloca ptr, align 8
  %13 = alloca [64 x i8], align 16
  %14 = alloca i32, align 4
  %15 = alloca i32, align 4
  %16 = alloca i32, align 4
  store i64 %0, ptr %5, align 8
  store i32 %1, ptr %6, align 4
  %17 = zext i1 %2 to i8
  store i8 %17, ptr %7, align 1
  %18 = load i32, ptr @has_xlogendptr, align 4
  %19 = icmp ne i32 %18, 0
  br i1 %19, label %86, label %20

20:                                               ; preds = %3
  call void @llvm.lifetime.start.p0(i64 128, ptr %8) #12
  call void @llvm.lifetime.start.p0(i64 16, ptr %9) #12
  call void @llvm.memset.p0.i64(ptr align 8 %9, i8 0, i64 16, i1 false)
  call void @llvm.lifetime.start.p0(i64 4, ptr %10) #12
  br label %21

21:                                               ; preds = %20
  call void @llvm.lifetime.start.p0(i64 4, ptr %11) #12
  call void @llvm.lifetime.start.p0(i64 8, ptr %12) #12
  store ptr %8, ptr %12, align 8
  store i32 0, ptr %11, align 4
  br label %22

22:                                               ; preds = %32, %21
  %23 = load i32, ptr %11, align 4
  %24 = zext i32 %23 to i64
  %25 = icmp ult i64 %24, 16
  br i1 %25, label %26, label %35

26:                                               ; preds = %22
  %27 = load ptr, ptr %12, align 8
  %28 = getelementptr inbounds nuw %struct.fd_set, ptr %27, i32 0, i32 0
  %29 = load i32, ptr %11, align 4
  %30 = zext i32 %29 to i64
  %31 = getelementptr inbounds nuw [16 x i64], ptr %28, i64 0, i64 %30
  store i64 0, ptr %31, align 8
  br label %32

32:                                               ; preds = %26
  %33 = load i32, ptr %11, align 4
  %34 = add i32 %33, 1
  store i32 %34, ptr %11, align 4
  br label %22, !llvm.loop !15

35:                                               ; preds = %22
  call void @llvm.lifetime.end.p0(i64 8, ptr %12) #12
  call void @llvm.lifetime.end.p0(i64 4, ptr %11) #12
  br label %36

36:                                               ; preds = %35
  br label %37

37:                                               ; preds = %36
  %38 = load i32, ptr @bgpipe, align 4
  %39 = srem i32 %38, 64
  %40 = zext i32 %39 to i64
  %41 = shl i64 1, %40
  %42 = getelementptr inbounds nuw %struct.fd_set, ptr %8, i32 0, i32 0
  %43 = load i32, ptr @bgpipe, align 4
  %44 = sdiv i32 %43, 64
  %45 = sext i32 %44 to i64
  %46 = getelementptr inbounds [16 x i64], ptr %42, i64 0, i64 %45
  %47 = load i64, ptr %46, align 8
  %48 = or i64 %47, %41
  store i64 %48, ptr %46, align 8
  %49 = load i32, ptr @bgpipe, align 4
  %50 = add i32 %49, 1
  %51 = call i32 @select(i32 noundef %50, ptr noundef %8, ptr noundef null, ptr noundef null, ptr noundef %9)
  store i32 %51, ptr %10, align 4
  %52 = load i32, ptr %10, align 4
  %53 = icmp eq i32 %52, 1
  br i1 %53, label %54, label %81

54:                                               ; preds = %37
  call void @llvm.lifetime.start.p0(i64 64, ptr %13) #12
  call void @llvm.memset.p0.i64(ptr align 16 %13, i8 0, i64 64, i1 false)
  call void @llvm.lifetime.start.p0(i64 4, ptr %14) #12
  call void @llvm.lifetime.start.p0(i64 4, ptr %15) #12
  %55 = load i32, ptr @bgpipe, align 4
  %56 = getelementptr inbounds [64 x i8], ptr %13, i64 0, i64 0
  %57 = call i64 @read(i32 noundef %55, ptr noundef %56, i64 noundef 63)
  %58 = trunc i64 %57 to i32
  store i32 %58, ptr %10, align 4
  %59 = load i32, ptr %10, align 4
  %60 = icmp slt i32 %59, 0
  br i1 %60, label %61, label %65

61:                                               ; preds = %54
  br label %62

62:                                               ; preds = %61
  call void (i32, i32, ptr, ...) @pg_log_generic(i32 noundef 4, i32 noundef 0, ptr noundef @.str.245)
  call void @exit(i32 noundef 1) #14
  unreachable

63:                                               ; No predecessors!
  br label %64

64:                                               ; preds = %63
  br label %65

65:                                               ; preds = %64, %54
  %66 = getelementptr inbounds [64 x i8], ptr %13, i64 0, i64 0
  %67 = call i32 (ptr, ptr, ...) @__isoc99_sscanf(ptr noundef %66, ptr noundef @.str.235, ptr noundef %14, ptr noundef %15) #12
  %68 = icmp ne i32 %67, 2
  br i1 %68, label %69, label %74

69:                                               ; preds = %65
  br label %70

70:                                               ; preds = %69
  %71 = getelementptr inbounds [64 x i8], ptr %13, i64 0, i64 0
  call void (i32, i32, ptr, ...) @pg_log_generic(i32 noundef 4, i32 noundef 0, ptr noundef @.str.236, ptr noundef %71)
  call void @exit(i32 noundef 1) #14
  unreachable

72:                                               ; No predecessors!
  br label %73

73:                                               ; preds = %72
  br label %74

74:                                               ; preds = %73, %65
  %75 = load i32, ptr %14, align 4
  %76 = zext i32 %75 to i64
  %77 = shl i64 %76, 32
  %78 = load i32, ptr %15, align 4
  %79 = zext i32 %78 to i64
  %80 = or i64 %77, %79
  store i64 %80, ptr @xlogendptr, align 8
  store i32 1, ptr @has_xlogendptr, align 4
  call void @llvm.lifetime.end.p0(i64 4, ptr %15) #12
  call void @llvm.lifetime.end.p0(i64 4, ptr %14) #12
  call void @llvm.lifetime.end.p0(i64 64, ptr %13) #12
  br label %82

81:                                               ; preds = %37
  store i1 false, ptr %4, align 1
  store i32 1, ptr %16, align 4
  br label %83

82:                                               ; preds = %74
  store i32 0, ptr %16, align 4
  br label %83

83:                                               ; preds = %82, %81
  call void @llvm.lifetime.end.p0(i64 4, ptr %10) #12
  call void @llvm.lifetime.end.p0(i64 16, ptr %9) #12
  call void @llvm.lifetime.end.p0(i64 128, ptr %8) #12
  %84 = load i32, ptr %16, align 4
  switch i32 %84, label %94 [
    i32 0, label %85
    i32 1, label %92
  ]

85:                                               ; preds = %83
  br label %86

86:                                               ; preds = %85, %3
  %87 = load i64, ptr %5, align 8
  %88 = load i64, ptr @xlogendptr, align 8
  %89 = icmp uge i64 %87, %88
  br i1 %89, label %90, label %91

90:                                               ; preds = %86
  store i1 true, ptr %4, align 1
  br label %92

91:                                               ; preds = %86
  store i1 false, ptr %4, align 1
  br label %92

92:                                               ; preds = %91, %90, %83
  %93 = load i1, ptr %4, align 1
  ret i1 %93

94:                                               ; preds = %83
  unreachable
}