; Function Attrs: nounwind uwtable
define internal zeroext i1 @reached_end_position(i64 noundef %0, i32 %1, i1 zeroext %2) #0 {
  %4 = alloca %struct.fd_set, align 8
  %5 = alloca %struct.timeval, align 8
  %6 = alloca [64 x i8], align 16
  %7 = alloca i32, align 4
  %8 = alloca i32, align 4
  %.b = load i1, ptr @has_xlogendptr, align 4
  br i1 %.b, label %._crit_edge, label %9

._crit_edge:                                      ; preds = %3
  %.pre = load i64, ptr @xlogendptr, align 8
  br label %36

9:                                                ; preds = %3
  call void @llvm.lifetime.start.p0(i64 128, ptr nonnull %4) #17
  call void @llvm.lifetime.start.p0(i64 16, ptr nonnull %5) #17
  call void @llvm.memset.p0.i64(ptr noundef nonnull align 8 dereferenceable(16) %5, i8 0, i64 16, i1 false)
  call void @llvm.memset.p0.i64(ptr noundef nonnull align 8 dereferenceable(128) %4, i8 0, i64 128, i1 false)
  %10 = load i32, ptr @bgpipe, align 4
  %11 = srem i32 %10, 64
  %12 = zext nneg i32 %11 to i64
  %13 = shl nuw i64 1, %12
  %14 = sdiv i32 %10, 64
  %15 = sext i32 %14 to i64
  %16 = getelementptr inbounds [16 x i64], ptr %4, i64 0, i64 %15
  %17 = load i64, ptr %16, align 8
  %18 = or i64 %13, %17
  store i64 %18, ptr %16, align 8
  %19 = add i32 %10, 1
  %20 = call i32 @select(i32 noundef %19, ptr noundef nonnull %4, ptr noundef null, ptr noundef null, ptr noundef nonnull %5) #17
  %.not14 = icmp eq i32 %20, 1
  br i1 %.not14, label %21, label %35

21:                                               ; preds = %9
  call void @llvm.lifetime.start.p0(i64 64, ptr nonnull %6) #17
  call void @llvm.memset.p0.i64(ptr noundef nonnull align 16 dereferenceable(64) %6, i8 0, i64 64, i1 false)
  call void @llvm.lifetime.start.p0(i64 4, ptr nonnull %7) #17
  call void @llvm.lifetime.start.p0(i64 4, ptr nonnull %8) #17
  %22 = load i32, ptr @bgpipe, align 4
  %23 = call i64 @read(i32 noundef %22, ptr noundef nonnull %6, i64 noundef 63) #17
  %24 = and i64 %23, 2147483648
  %.not = icmp eq i64 %24, 0
  br i1 %.not, label %26, label %25

25:                                               ; preds = %21
  call void (i32, i32, ptr, ...) @pg_log_generic(i32 noundef 4, i32 noundef 0, ptr noundef nonnull @.str.245) #17
  call void @exit(i32 noundef 1) #20
  unreachable

26:                                               ; preds = %21
  %27 = call i32 (ptr, ptr, ...) @__isoc99_sscanf(ptr noundef nonnull %6, ptr noundef nonnull @.str.235, ptr noundef nonnull %7, ptr noundef nonnull %8) #17
  %.not11 = icmp eq i32 %27, 2
  br i1 %.not11, label %.thread, label %28

28:                                               ; preds = %26
  call void (i32, i32, ptr, ...) @pg_log_generic(i32 noundef 4, i32 noundef 0, ptr noundef nonnull @.str.236, ptr noundef nonnull %6) #17
  call void @exit(i32 noundef 1) #20
  unreachable

.thread:                                          ; preds = %26
  %29 = load i32, ptr %7, align 4
  %30 = zext i32 %29 to i64
  %31 = shl nuw i64 %30, 32
  %32 = load i32, ptr %8, align 4
  %33 = zext i32 %32 to i64
  %34 = or disjoint i64 %31, %33
  store i64 %34, ptr @xlogendptr, align 8
  store i1 true, ptr @has_xlogendptr, align 4
  call void @llvm.lifetime.end.p0(i64 4, ptr nonnull %8) #17
  call void @llvm.lifetime.end.p0(i64 4, ptr nonnull %7) #17
  call void @llvm.lifetime.end.p0(i64 64, ptr nonnull %6) #17
  call void @llvm.lifetime.end.p0(i64 16, ptr nonnull %5) #17
  call void @llvm.lifetime.end.p0(i64 128, ptr nonnull %4) #17
  br label %36

35:                                               ; preds = %9
  call void @llvm.lifetime.end.p0(i64 16, ptr nonnull %5) #17
  call void @llvm.lifetime.end.p0(i64 128, ptr nonnull %4) #17
  br label %38

36:                                               ; preds = %._crit_edge, %.thread
  %37 = phi i64 [ %.pre, %._crit_edge ], [ %34, %.thread ]
  %.not12 = icmp uge i64 %0, %37
  br label %38

38:                                               ; preds = %35, %36
  %.1 = phi i1 [ false, %35 ], [ %.not12, %36 ]
  ret i1 %.1
}